target datalayout = "e-m:e-p270:32:32-p271:32:32-p272:64:64-i64:64-i128:128-f80:128-n8:16:32:64-S128"
target triple = "x86_64-pc-linux-gnu"

@_audit_subinterpreter_interpreter_count = internal global i32 0, align 4
@.str.321 = private unnamed_addr constant [4 x i8] c"%s\0A\00", align 1
@.str.322 = private unnamed_addr constant [31 x i8] c"cpython.PyInterpreterState_New\00", align 1

; Function Attrs: nounwind uwtable
define internal i32 @_audit_subinterpreter_hook(ptr noundef %0, ptr noundef %1, ptr noundef %2) #0 {
  %4 = alloca ptr, align 8
  %5 = alloca ptr, align 8
  %6 = alloca ptr, align 8
  store ptr %0, ptr %4, align 8, !tbaa !16
  store ptr %1, ptr %5, align 8, !tbaa !80
  store ptr %2, ptr %6, align 8, !tbaa !38
  %7 = load ptr, ptr %4, align 8, !tbaa !16
  %8 = call i32 (ptr, ...) @printf(ptr noundef @.str.321, ptr noundef %7)
  %9 = load ptr, ptr %4, align 8, !tbaa !16
  %10 = call i32 @strcmp(ptr noundef %9, ptr noundef @.str.322) #12
  %11 = icmp eq i32 %10, 0
  br i1 %11, label %12, label %15

12:                                               ; preds = %3
  %13 = load volatile i32, ptr @_audit_subinterpreter_interpreter_count, align 4, !tbaa !4
  %14 = add i32 %13, 1
  store volatile i32 %14, ptr @_audit_subinterpreter_interpreter_count, align 4, !tbaa !4
  br label %15

15:                                               ; preds = %12, %3
  ret i32 0
}