; Function Attrs: nofree nounwind uwtable
define internal noundef i32 @_audit_subinterpreter_hook(ptr noundef readonly captures(none) %0, ptr readnone captures(none) %1, ptr readnone captures(none) %2) #17 {
  %puts = tail call i32 @puts(ptr nonnull dereferenceable(1) %0)
  %4 = tail call i32 @strcmp(ptr noundef nonnull dereferenceable(1) %0, ptr noundef nonnull dereferenceable(31) @.str.322) #19
  %5 = icmp eq i32 %4, 0
  br i1 %5, label %6, label %9

6:                                                ; preds = %3
  %7 = load volatile i32, ptr @_audit_subinterpreter_interpreter_count, align 4, !tbaa !4
  %8 = add i32 %7, 1
  store volatile i32 %8, ptr @_audit_subinterpreter_interpreter_count, align 4, !tbaa !4
  br label %9

9:                                                ; preds = %6, %3
  ret i32 0
}